Certificate:
    Data:
        Version: 3 (0x2)
        Serial Number: 20220138 (0x13488ea)
    Signature Algorithm: sha256WithRSAEncryption
        Issuer: C=SI, ST=Slovenia, O=Vegova Lj, OU=Vegova Lj local Certificate Authority, CN=Vegova Lj Intermediate CA
        Validity
            Not Before: Apr 10 05:46:42 2024 GMT
            Not After : Apr 10 05:46:42 2025 GMT
        Subject: C=SI, L=Ljubljana, O=Vegova BCD, CN=gasper.nemgar.si
        Subject Public Key Info:
            Public Key Algorithm: rsaEncryption
                Public-Key: (4096 bit)
                Modulus:
                    00:cd:19:cb:a5:5d:4b:d1:38:71:e4:2b:79:e6:7e:
                    b7:36:ca:bc:12:84:87:f4:5a:0a:97:4b:e1:ff:58:
                    d3:af:f5:f0:ba:d9:dd:fd:0a:9c:27:59:13:52:fd:
                    4e:ba:b3:4c:d0:91:5d:70:ee:0f:37:17:3b:98:22:
                    66:42:9a:60:bb:42:ca:ac:54:12:f0:ed:57:c1:ec:
                    ca:05:16:f2:48:d2:22:a0:b9:64:0e:a4:1c:73:66:
                    56:2e:68:f5:03:57:47:3c:90:cb:44:85:f8:4f:b4:
                    1d:36:d2:c7:d1:16:92:8e:e1:fc:0d:7a:d8:04:88:
                    22:d6:7f:26:e7:45:db:3b:8a:5f:0e:c1:ae:34:cb:
                    9e:1a:36:8f:15:83:e8:c5:49:a9:3e:f3:bd:8f:e5:
                    08:8e:be:64:d6:d2:14:84:f0:ed:73:24:c5:c5:ae:
                    0f:3b:d4:27:25:53:9c:f8:62:d1:49:a7:49:a9:85:
                    cb:85:bd:5e:9f:fe:f7:99:45:d0:9e:ea:dd:01:0b:
                    ad:c6:6d:e7:ea:89:b1:93:01:03:de:c2:ea:11:27:
                    76:5b:4d:6e:ee:97:71:9a:84:9b:20:60:7b:6f:d8:
                    89:fd:fb:0c:f7:25:0c:3c:f3:a7:5e:9c:f5:6d:ef:
                    d3:6e:6b:d3:b7:19:20:53:5a:b9:4c:b3:5e:05:dd:
                    ce:7b:1d:af:e8:c0:3c:95:71:11:0f:c3:13:77:06:
                    a6:0a:ab:cd:b4:22:67:80:c5:06:f3:e2:c6:11:21:
                    aa:a9:b6:58:bf:dc:d9:9b:e9:8d:d4:c8:cc:9f:c9:
                    cb:e8:a5:d0:64:00:4f:09:26:fa:57:13:9e:b0:02:
                    88:d5:f4:30:ed:d6:e0:a3:d3:b4:16:e7:1a:5e:e8:
                    0e:7c:6d:ad:5b:cc:82:49:fc:22:62:c5:07:af:b6:
                    f5:86:0d:de:76:8d:fb:ca:27:44:73:a4:ff:74:35:
                    37:01:12:da:18:d0:bb:f8:9b:03:3d:b5:0c:3d:7a:
                    c5:1e:43:57:85:45:fa:d4:e6:b1:e3:7e:4e:40:b2:
                    8f:dc:da:a8:68:66:29:39:82:d0:e5:93:36:73:1b:
                    3d:8a:86:ae:37:7a:7d:41:b5:95:97:c2:7c:0c:01:
                    e6:d9:c2:3a:44:31:99:ba:34:47:5c:a8:d7:7c:a3:
                    3a:7c:d2:e1:b8:94:eb:c2:50:78:c6:94:e7:5e:3d:
                    8d:30:e3:7c:6d:b3:9d:d6:4b:d8:10:f0:57:cb:e3:
                    c3:d9:d1:15:01:37:77:03:b2:3a:e2:2c:bd:d6:c0:
                    09:2e:9c:58:a8:87:36:4d:30:7c:38:bb:2b:96:08:
                    98:ac:47:50:0b:a4:b9:c8:e3:6b:0d:66:55:e2:02:
                    73:70:e5
                Exponent: 65537 (0x10001)
        X509v3 extensions:
            X509v3 Basic Constraints: 
                CA:FALSE
            Netscape Comment: 
                Generated Certificate by php custom vegova script
            X509v3 Subject Key Identifier: 
                23:5C:24:BF:1D:AA:16:E1:F1:EE:47:81:66:51:87:AF:42:41:C5:FF
            X509v3 Authority Key Identifier: 
                keyid:D5:4F:31:D5:95:25:0E:21:78:86:FE:88:81:F1:2A:FD:A5:EE:C9:FB

            X509v3 Subject Alternative Name: 
                DNS:gasper.nemgar.si, DNS:192.168.112.14, IP Address:192.168.112.14
    Signature Algorithm: sha256WithRSAEncryption
         96:af:5e:d8:fa:7b:5a:38:30:71:5a:a8:3d:d4:c6:5e:cc:7a:
         11:69:d5:78:13:3b:23:6f:5c:46:97:81:54:9f:4c:f9:0f:0e:
         1e:ca:53:69:aa:b1:e6:bc:09:1c:45:4c:59:3b:4b:c4:c1:17:
         90:b8:4c:ce:eb:c9:41:f5:4a:ca:b3:4d:3f:50:06:60:a2:01:
         17:ac:e4:02:83:dc:50:be:6c:91:8b:a3:43:ef:2f:09:68:5b:
         25:1c:3a:83:75:26:62:a7:79:8e:4f:6f:05:d7:70:25:2b:3c:
         fd:05:a1:22:49:40:ea:3b:ee:ca:0e:2a:65:1a:0b:2e:76:91:
         75:7d:7a:7d:23:94:10:f7:fc:7f:79:22:a3:d0:78:67:a9:59:
         31:85:dc:81:0a:60:97:4e:66:08:58:4d:b0:d2:1b:b4:09:66:
         25:ef:a3:8c:6e:d6:45:b7:fe:a3:60:ca:85:17:95:4e:77:ce:
         e1:c3:61:56:d9:8a:1d:95:7b:1d:c0:2c:8d:d5:56:6e:a7:d8:
         07:2e:8c:51:9a:12:3f:34:ce:8d:29:c0:4d:1a:ae:a2:eb:c4:
         37:75:31:af:0b:b0:d5:e2:e1:df:89:07:0a:d8:b5:90:80:07:
         ca:8c:2e:6f:28:21:f0:ea:75:86:e1:39:9b:dc:90:ee:fd:0e:
         10:42:0c:71:eb:67:85:8b:ff:37:46:18:a4:c0:cf:53:72:4e:
         4a:c1:30:c1:30:7b:6c:d7:8a:9f:f3:ad:c7:75:e2:e0:8f:60:
         27:e2:91:3e:bd:18:24:84:c1:0b:ad:98:eb:9b:1e:25:d4:d2:
         94:89:fe:fd:f8:de:89:94:dc:ff:23:35:2e:32:cb:65:47:7b:
         b0:e2:c7:5a:85:d8:21:95:b2:d0:9c:f6:94:2e:e3:10:2f:d6:
         6c:30:59:ec:cc:2f:4c:a6:e9:2c:d8:40:ff:64:b5:67:9e:fc:
         b8:5e:b9:1d:34:45:87:e2:11:60:5e:eb:08:40:ff:3f:af:42:
         15:e0:60:f2:de:25:64:61:e3:00:d0:35:f0:72:71:d9:6e:a9:
         80:2c:10:0a:ae:46:5b:b0:ea:8e:93:56:33:25:58:3d:5a:83:
         9a:83:0d:62:b4:ed:7d:ae:9c:54:a2:59:c8:ca:d0:05:01:20:
         b7:22:f5:17:f3:a2:57:d7:53:5d:4b:c2:3e:d0:03:ee:73:c6:
         7c:b8:32:a6:0b:a6:cd:4f:a3:e9:07:82:6f:3b:43:b8:07:9a:
         cd:69:df:5d:ed:68:3b:69:aa:b3:8b:8a:6c:67:8b:ae:41:d1:
         62:ee:ff:30:e7:ba:e3:4a:42:14:47:35:e3:39:f0:d2:c9:af:
         ef:30:2a:4b:90:da:58:74
-----BEGIN CERTIFICATE-----
MIIGHDCCBASgAwIBAgIEATSI6jANBgkqhkiG9w0BAQsFADCBiDELMAkGA1UEBhMC
U0kxETAPBgNVBAgMCFNsb3ZlbmlhMRIwEAYDVQQKDAlWZWdvdmEgTGoxLjAsBgNV
BAsMJVZlZ292YSBMaiBsb2NhbCBDZXJ0aWZpY2F0ZSBBdXRob3JpdHkxIjAgBgNV
BAMMGVZlZ292YSBMaiBJbnRlcm1lZGlhdGUgQ0EwHhcNMjQwNDEwMDU0NjQyWhcN
MjUwNDEwMDU0NjQyWjBRMQswCQYDVQQGEwJTSTESMBAGA1UEBwwJTGp1YmxqYW5h
MRMwEQYDVQQKDApWZWdvdmEgQkNEMRkwFwYDVQQDDBBnYXNwZXIubmVtZ2FyLnNp
MIICIjANBgkqhkiG9w0BAQEFAAOCAg8AMIICCgKCAgEAzRnLpV1L0Thx5Ct55n63
Nsq8EoSH9FoKl0vh/1jTr/Xwutnd/QqcJ1kTUv1OurNM0JFdcO4PNxc7mCJmQppg
u0LKrFQS8O1XwezKBRbySNIioLlkDqQcc2ZWLmj1A1dHPJDLRIX4T7QdNtLH0RaS
juH8DXrYBIgi1n8m50XbO4pfDsGuNMueGjaPFYPoxUmpPvO9j+UIjr5k1tIUhPDt
cyTFxa4PO9QnJVOc+GLRSadJqYXLhb1en/73mUXQnurdAQutxm3n6omxkwED3sLq
ESd2W01u7pdxmoSbIGB7b9iJ/fsM9yUMPPOnXpz1be/TbmvTtxkgU1q5TLNeBd3O
ex2v6MA8lXERD8MTdwamCqvNtCJngMUG8+LGESGqqbZYv9zZm+mN1MjMn8nL6KXQ
ZABPCSb6VxOesAKI1fQw7dbgo9O0FucaXugOfG2tW8yCSfwiYsUHr7b1hg3edo37
yidEc6T/dDU3ARLaGNC7+JsDPbUMPXrFHkNXhUX61Oax435OQLKP3NqoaGYpOYLQ
5ZM2cxs9ioauN3p9QbWVl8J8DAHm2cI6RDGZujRHXKjXfKM6fNLhuJTrwlB4xpTn
Xj2NMON8bbOd1kvYEPBXy+PD2dEVATd3A7I64iy91sAJLpxYqIc2TTB8OLsrlgiY
rEdQC6S5yONrDWZV4gJzcOUCAwEAAaOBwzCBwDAJBgNVHRMEAjAAMEAGCWCGSAGG
+EIBDQQzFjFHZW5lcmF0ZWQgQ2VydGlmaWNhdGUgYnkgcGhwIGN1c3RvbSB2ZWdv
dmEgc2NyaXB0MB0GA1UdDgQWBBQjXCS/HaoW4fHuR4FmUYevQkHF/zAfBgNVHSME
GDAWgBTVTzHVlSUOIXiG/oiB8Sr9pe7J+zAxBgNVHREEKjAoghBnYXNwZXIubmVt
Z2FyLnNpgg4xOTIuMTY4LjExMi4xNIcEwKhwDjANBgkqhkiG9w0BAQsFAAOCAgEA
lq9e2Pp7WjgwcVqoPdTGXsx6EWnVeBM7I29cRpeBVJ9M+Q8OHspTaaqx5rwJHEVM
WTtLxMEXkLhMzuvJQfVKyrNNP1AGYKIBF6zkAoPcUL5skYujQ+8vCWhbJRw6g3Um
Yqd5jk9vBddwJSs8/QWhIklA6jvuyg4qZRoLLnaRdX16fSOUEPf8f3kio9B4Z6lZ
MYXcgQpgl05mCFhNsNIbtAlmJe+jjG7WRbf+o2DKhReVTnfO4cNhVtmKHZV7HcAs
jdVWbqfYBy6MUZoSPzTOjSnATRquouvEN3Uxrwuw1eLh34kHCti1kIAHyowubygh
8Op1huE5m9yQ7v0OEEIMcetnhYv/N0YYpMDPU3JOSsEwwTB7bNeKn/Otx3Xi4I9g
J+KRPr0YJITBC62Y65seJdTSlIn+/fjeiZTc/yM1LjLLZUd7sOLHWoXYIZWy0Jz2
lC7jEC/WbDBZ7MwvTKbpLNhA/2S1Z578uF65HTRFh+IRYF7rCED/P69CFeBg8t4l
ZGHjANA18HJx2W6pgCwQCq5GW7DqjpNWMyVYPVqDmoMNYrTtfa6cVKJZyMrQBQEg
tyL1F/OiV9dTXUvCPtAD7nPGfLgypgumzU+j6QeCbztDuAeazWnfXe1oO2mqs4uK
bGeLrkHRYu7/MOe640pCFEc14znw0smv7zAqS5DaWHQ=
-----END CERTIFICATE-----
